target datalayout = "e-m:e-p270:32:32-p271:32:32-p272:64:64-i64:64-i128:128-f80:128-n8:16:32:64-S128"
target triple = "x86_64-pc-linux-gnu"

; Function Attrs: mustprogress nounwind uwtable
define i32 @ustr_hashUCharsN_77(ptr noundef %0, i32 noundef %1) #3 {
  %3 = alloca ptr, align 8
  %4 = alloca i32, align 4
  %5 = alloca i32, align 4
  %6 = alloca ptr, align 8
  %7 = alloca i32, align 4
  %8 = alloca i32, align 4
  %9 = alloca ptr, align 8
  store ptr %0, ptr %3, align 8, !tbaa !3
  store i32 %1, ptr %4, align 4, !tbaa !8
  br label %10

10:                                               ; preds = %2
  call void @llvm.lifetime.start.p0(i64 4, ptr %5) #7
  store i32 0, ptr %5, align 4, !tbaa !8
  call void @llvm.lifetime.start.p0(i64 8, ptr %6) #7
  %11 = load ptr, ptr %3, align 8, !tbaa !3
  store ptr %11, ptr %6, align 8, !tbaa !3
  %12 = load ptr, ptr %6, align 8, !tbaa !3
  %13 = icmp ne ptr %12, null
  br i1 %13, label %14, label %40

14:                                               ; preds = %10
  call void @llvm.lifetime.start.p0(i64 4, ptr %7) #7
  %15 = load i32, ptr %4, align 4, !tbaa !8
  store i32 %15, ptr %7, align 4, !tbaa !8
  call void @llvm.lifetime.start.p0(i64 4, ptr %8) #7
  %16 = load i32, ptr %7, align 4, !tbaa !8
  %17 = sub nsw i32 %16, 32
  %18 = sdiv i32 %17, 32
  %19 = add nsw i32 %18, 1
  store i32 %19, ptr %8, align 4, !tbaa !8
  call void @llvm.lifetime.start.p0(i64 8, ptr %9) #7
  %20 = load ptr, ptr %6, align 8, !tbaa !3
  %21 = load i32, ptr %7, align 4, !tbaa !8
  %22 = sext i32 %21 to i64
  %23 = getelementptr inbounds i16, ptr %20, i64 %22
  store ptr %23, ptr %9, align 8, !tbaa !3
  br label %24

24:                                               ; preds = %28, %14
  %25 = load ptr, ptr %6, align 8, !tbaa !3
  %26 = load ptr, ptr %9, align 8, !tbaa !3
  %27 = icmp ult ptr %25, %26
  br i1 %27, label %28, label %39

28:                                               ; preds = %24
  %29 = load i32, ptr %5, align 4, !tbaa !8
  %30 = mul i32 %29, 37
  %31 = load ptr, ptr %6, align 8, !tbaa !3
  %32 = load i16, ptr %31, align 2, !tbaa !10
  %33 = zext i16 %32 to i32
  %34 = add i32 %30, %33
  store i32 %34, ptr %5, align 4, !tbaa !8
  %35 = load i32, ptr %8, align 4, !tbaa !8
  %36 = load ptr, ptr %6, align 8, !tbaa !3
  %37 = sext i32 %35 to i64
  %38 = getelementptr inbounds i16, ptr %36, i64 %37
  store ptr %38, ptr %6, align 8, !tbaa !3
  br label %24, !llvm.loop !82

39:                                               ; preds = %24
  call void @llvm.lifetime.end.p0(i64 8, ptr %9) #7
  call void @llvm.lifetime.end.p0(i64 4, ptr %8) #7
  call void @llvm.lifetime.end.p0(i64 4, ptr %7) #7
  br label %40

40:                                               ; preds = %39, %10
  %41 = load i32, ptr %5, align 4, !tbaa !8
  call void @llvm.lifetime.end.p0(i64 8, ptr %6) #7
  call void @llvm.lifetime.end.p0(i64 4, ptr %5) #7
  ret i32 %41

42:                                               ; No predecessors!
  unreachable
}