; Function Attrs: mustprogress nofree norecurse nosync nounwind willreturn memory(argmem: read) uwtable
define i32 @ustr_hashUCharsN_77(ptr noundef readonly %0, i32 noundef %1) local_unnamed_addr #2 {
  %.not = icmp eq ptr %0, null
  br i1 %.not, label %.loopexit, label %3

3:                                                ; preds = %2
  %4 = sext i32 %1 to i64
  %5 = getelementptr inbounds i16, ptr %0, i64 %4
  %6 = icmp sgt i32 %1, 0
  br i1 %6, label %.lr.ph, label %.loopexit

.lr.ph:                                           ; preds = %3
  %7 = add nsw i32 %1, -32
  %8 = sdiv i32 %7, 32
  %9 = zext nneg i32 %8 to i64
  br label %10

10:                                               ; preds = %.lr.ph, %10
  %.115 = phi i32 [ 0, %.lr.ph ], [ %14, %10 ]
  %.01214 = phi ptr [ %0, %.lr.ph ], [ %16, %10 ]
  %11 = mul i32 %.115, 37
  %12 = load i16, ptr %.01214, align 2, !tbaa !3
  %13 = zext i16 %12 to i32
  %14 = add i32 %11, %13
  %15 = getelementptr i16, ptr %.01214, i64 %9
  %16 = getelementptr i8, ptr %15, i64 2
  %17 = icmp ult ptr %16, %5
  br i1 %17, label %10, label %.loopexit, !llvm.loop !68

.loopexit:                                        ; preds = %10, %3, %2
  %.0 = phi i32 [ 0, %2 ], [ 0, %3 ], [ %14, %10 ]
  ret i32 %.0
}